target datalayout = "e-m:e-p270:32:32-p271:32:32-p272:64:64-i64:64-i128:128-f80:128-n8:16:32:64-S128"
target triple = "x86_64-pc-linux-gnu"

%"class.arrow::internal::DynamicDispatch" = type { ptr }

@_ZZN5arrow8internal8unpack32EPKjPjiiE8dispatch = internal global %"class.arrow::internal::DynamicDispatch" zeroinitializer, align 8
@_ZGVZN5arrow8internal8unpack32EPKjPjiiE8dispatch = internal global i64 0, align 8

; Function Attrs: mustprogress uwtable
define noundef i32 @_ZN5arrow8internal8unpack32EPKjPjii(ptr noundef %0, ptr noundef %1, i32 noundef %2, i32 noundef %3) #0 personality ptr @__gxx_personality_v0 {
  %5 = alloca ptr, align 8
  %6 = alloca ptr, align 8
  %7 = alloca i32, align 4
  %8 = alloca i32, align 4
  %9 = alloca ptr, align 8
  %10 = alloca i32, align 4
  store ptr %0, ptr %5, align 8, !tbaa !3
  store ptr %1, ptr %6, align 8, !tbaa !3
  store i32 %2, ptr %7, align 4, !tbaa !8
  store i32 %3, ptr %8, align 4, !tbaa !8
  %11 = load atomic i8, ptr @_ZGVZN5arrow8internal8unpack32EPKjPjiiE8dispatch acquire, align 8
  %12 = icmp eq i8 %11, 0
  br i1 %12, label %13, label %18, !prof !10

13:                                               ; preds = %4
  %14 = call i32 @__cxa_guard_acquire(ptr @_ZGVZN5arrow8internal8unpack32EPKjPjiiE8dispatch) #1
  %15 = icmp ne i32 %14, 0
  br i1 %15, label %16, label %18

16:                                               ; preds = %13
  invoke void @_ZN5arrow8internal15DynamicDispatchINS0_12_GLOBAL__N_123Unpack32DynamicFunctionEEC2Ev(ptr noundef nonnull align 8 dereferenceable(8) @_ZZN5arrow8internal8unpack32EPKjPjiiE8dispatch)
          to label %17 unwind label %25

17:                                               ; preds = %16
  call void @__cxa_guard_release(ptr @_ZGVZN5arrow8internal8unpack32EPKjPjiiE8dispatch) #1
  br label %18

18:                                               ; preds = %17, %13, %4
  %19 = load ptr, ptr @_ZZN5arrow8internal8unpack32EPKjPjiiE8dispatch, align 8, !tbaa !11
  %20 = load ptr, ptr %5, align 8, !tbaa !3
  %21 = load ptr, ptr %6, align 8, !tbaa !3
  %22 = load i32, ptr %7, align 4, !tbaa !8
  %23 = load i32, ptr %8, align 4, !tbaa !8
  %24 = call noundef i32 %19(ptr noundef %20, ptr noundef %21, i32 noundef %22, i32 noundef %23)
  ret i32 %24

25:                                               ; preds = %16
  %26 = landingpad { ptr, i32 }
          cleanup
  %27 = extractvalue { ptr, i32 } %26, 0
  store ptr %27, ptr %9, align 8
  %28 = extractvalue { ptr, i32 } %26, 1
  store i32 %28, ptr %10, align 4
  call void @__cxa_guard_abort(ptr @_ZGVZN5arrow8internal8unpack32EPKjPjiiE8dispatch) #1
  br label %29

29:                                               ; preds = %25
  %30 = load ptr, ptr %9, align 8
  %31 = load i32, ptr %10, align 4
  %32 = insertvalue { ptr, i32 } poison, ptr %30, 0
  %33 = insertvalue { ptr, i32 } %32, i32 %31, 1
  resume { ptr, i32 } %33
}