; Function Attrs: mustprogress uwtable
define noundef i32 @_ZN5arrow8internal8unpack32EPKjPjii(ptr noundef %0, ptr noundef %1, i32 noundef %2, i32 noundef %3) local_unnamed_addr #0 personality ptr @__gxx_personality_v0 {
  %5 = load atomic i8, ptr @_ZGVZN5arrow8internal8unpack32EPKjPjiiE8dispatch acquire, align 8
  %6 = icmp eq i8 %5, 0
  br i1 %6, label %7, label %11, !prof !3

7:                                                ; preds = %4
  %8 = tail call i32 @__cxa_guard_acquire(ptr nonnull @_ZGVZN5arrow8internal8unpack32EPKjPjiiE8dispatch) #15
  %.not = icmp eq i32 %8, 0
  br i1 %.not, label %11, label %9

9:                                                ; preds = %7
  invoke fastcc void @_ZN5arrow8internal15DynamicDispatchINS0_12_GLOBAL__N_123Unpack32DynamicFunctionEEC2Ev()
          to label %10 unwind label %14

10:                                               ; preds = %9
  tail call void @__cxa_guard_release(ptr nonnull @_ZGVZN5arrow8internal8unpack32EPKjPjiiE8dispatch) #15
  br label %11

11:                                               ; preds = %10, %7, %4
  %12 = load ptr, ptr @_ZZN5arrow8internal8unpack32EPKjPjiiE8dispatch.0, align 8, !tbaa !4
  %13 = tail call noundef i32 %12(ptr noundef %0, ptr noundef %1, i32 noundef %2, i32 noundef %3)
  ret i32 %13

14:                                               ; preds = %9
  %15 = landingpad { ptr, i32 }
          cleanup
  tail call void @__cxa_guard_abort(ptr nonnull @_ZGVZN5arrow8internal8unpack32EPKjPjiiE8dispatch) #15
  resume { ptr, i32 } %15
}